(lp0
ccopy_reg
_reconstructor
p1
(cenvironment
RectangleObstacle
p2
c__builtin__
object
p3
Ntp4
Rp5
(dp6
S'geometry'
p7
g1
(cphysics
Polygon
p8
g3
Ntp9
Rp10
(dp11
S'vertexes'
p12
(lp13
(lp14
F0.83575911800852
aF0.3742846222980655
aa(lp15
F0.83575911800852
aF-0.3742846222980655
aa(lp16
F-0.83575911800852
aF-0.3742846222980655
aa(lp17
F-0.83575911800852
aF0.3742846222980655
aasS'bounding_circle'
p18
((lp19
F0.0
aF0.0
aF0.9157413837013072
tp20
sbsS'width'
p21
F1.67151823601704
sS'pose'
p22
g1
(cphysics
Pose
p23
g3
Ntp24
Rp25
(dp26
S'y'
p27
F2.3727220033046192
sS'x'
p28
F0.8109458899801977
sS'theta'
p29
F2.895146405175913
sbsS'global_geometry'
p30
g1
(g8
g3
Ntp31
Rp32
(dp33
g12
(lp34
(lp35
F-0.09087134660015317
aF2.213637266042479
aa(lp36
F0.09174895520404669
aF2.9395888755345756
aa(lp37
F1.7127631265605485
aF2.5318067405667595
aa(lp38
F1.5301428247563487
aF1.805855131074663
aasg18
((lp39
F0.8109458899801977
aF2.3727220033046192
aF0.9157413837013072
tp40
sbsS'height'
p41
F0.748569244596131
sbag1
(g2
g3
Ntp42
Rp43
(dp44
g7
g1
(g8
g3
Ntp45
Rp46
(dp47
g12
(lp48
(lp49
F0.9347935202572524
aF0.17486535075232507
aa(lp50
F0.9347935202572524
aF-0.17486535075232507
aa(lp51
F-0.9347935202572524
aF-0.17486535075232507
aa(lp52
F-0.9347935202572524
aF0.17486535075232507
aasg18
((lp53
F0.0
aF0.0
aF0.9510083156359254
tp54
sbsg21
F1.8695870405145047
sg22
g1
(g23
g3
Ntp55
Rp56
(dp57
g27
F0.4556388665128863
sg28
F-0.27539569341212206
sg29
F1.2971245722053926
sbsg30
g1
(g8
g3
Ntp58
Rp59
(dp60
g12
(lp61
(lp62
F-0.19110832275775042
aF1.4029046452449445
aa(lp63
F0.14560716101533805
aF1.3083835017775187
aa(lp64
F-0.3596830640664937
aF-0.49162691221917176
aa(lp65
F-0.6963985478395822
aF-0.39710576875174597
aasg18
((lp66
F-0.27539569341212206
aF0.4556388665128863
aF0.9510083156359255
tp67
sbsg41
F0.34973070150465013
sbag1
(g2
g3
Ntp68
Rp69
(dp70
g7
g1
(g8
g3
Ntp71
Rp72
(dp73
g12
(lp74
(lp75
F0.7358718680761859
aF0.20701247291254243
aa(lp76
F0.7358718680761859
aF-0.20701247291254243
aa(lp77
F-0.7358718680761859
aF-0.20701247291254243
aa(lp78
F-0.7358718680761859
aF0.20701247291254243
aasg18
((lp79
F0.0
aF0.0
aF0.7644354584706949
tp80
sbsg21
F1.4717437361523718
sg22
g1
(g23
g3
Ntp81
Rp82
(dp83
g27
F2.5958869265947255
sg28
F-2.3135827958164
sg29
F-1.3873918900225277
sbsg30
g1
(g8
g3
Ntp84
Rp85
(dp86
g12
(lp87
(lp88
F-1.9758354206725723
aF1.9101112484384086
aa(lp89
F-2.382916546141794
aF1.8346022221423652
aa(lp90
F-2.651330170960228
aF3.2816626047510424
aa(lp91
F-2.2442490454910065
aF3.357171631047086
aasg18
((lp92
F-2.3135827958164
aF2.5958869265947255
aF0.7644354584706952
tp93
sbsg41
F0.41402494582508487
sbag1
(g2
g3
Ntp94
Rp95
(dp96
g7
g1
(g8
g3
Ntp97
Rp98
(dp99
g12
(lp100
(lp101
F0.3006276605737966
aF0.06181989082649606
aa(lp102
F0.3006276605737966
aF-0.06181989082649606
aa(lp103
F-0.3006276605737966
aF-0.06181989082649606
aa(lp104
F-0.3006276605737966
aF0.06181989082649606
aasg18
((lp105
F0.0
aF0.0
aF0.306918049654747
tp106
sbsg21
F0.6012553211475932
sg22
g1
(g23
g3
Ntp107
Rp108
(dp109
g27
F2.487124149448096
sg28
F0.00921914939592739
sg29
F-2.5613745092203475
sbsg30
g1
(g8
g3
Ntp110
Rp111
(dp112
g12
(lp113
(lp114
F-0.20831865529748295
aF2.2706155058953605
aa(lp115
F-0.27609877407432115
aF2.374020781900975
aa(lp116
F0.22675695408933771
aF2.703632793000831
aa(lp117
F0.2945370728661759
aF2.6002275169952167
aasg18
((lp118
F0.009219149395927384
aF2.487124149448096
aF0.30691804965474695
tp119
sbsg41
F0.12363978165299212
sbag1
(g2
g3
Ntp120
Rp121
(dp122
g7
g1
(g8
g3
Ntp123
Rp124
(dp125
g12
(lp126
(lp127
F0.39366584167955937
aF0.4629967371029446
aa(lp128
F0.39366584167955937
aF-0.4629967371029446
aa(lp129
F-0.39366584167955937
aF-0.4629967371029446
aa(lp130
F-0.39366584167955937
aF0.4629967371029446
aasg18
((lp131
F0.0
aF0.0
aF0.6077324851225653
tp132
sbsg21
F0.7873316833591187
sg22
g1
(g23
g3
Ntp133
Rp134
(dp135
g27
F1.9764680013384734
sg28
F-1.1891776010722805
sg29
F-0.30869624463715395
sbsg30
g1
(g8
g3
Ntp136
Rp137
(dp138
g12
(lp139
(lp140
F-0.6734539818483211
aF2.297976822442638
aa(lp141
F-0.9547863259356884
aF1.4157546132219676
aa(lp142
F-1.70490122029624
aF1.6549591802343093
aa(lp143
F-1.4235688762088727
aF2.5371813894549793
aasg18
((lp144
F-1.1891776010722805
aF1.9764680013384734
aF0.6077324851225654
tp145
sbsg41
F0.9259934742058892
sbag1
(g2
g3
Ntp146
Rp147
(dp148
g7
g1
(g8
g3
Ntp149
Rp150
(dp151
g12
(lp152
(lp153
F1.0792724904647113
aF0.08540430034589948
aa(lp154
F1.0792724904647113
aF-0.08540430034589948
aa(lp155
F-1.0792724904647113
aF-0.08540430034589948
aa(lp156
F-1.0792724904647113
aF0.08540430034589948
aasg18
((lp157
F0.0
aF0.0
aF1.0826462964382564
tp158
sbsg21
F2.1585449809294226
sg22
g1
(g23
g3
Ntp159
Rp160
(dp161
g27
F-4.42098005951025
sg28
F-0.33701010914456014
sg29
F1.2710883956541252
sbsg30
g1
(g8
g3
Ntp162
Rp163
(dp164
g12
(lp165
(lp166
F-0.0999616486928862
aF-3.364603691642735
aa(lp167
F0.06323277611889039
aF-3.4150334227608345
aa(lp168
F-0.5740585695962341
aF-5.4773564273777655
aa(lp169
F-0.7372529944080106
aF-5.426926696259666
aasg18
((lp170
F-0.33701010914456014
aF-4.42098005951025
aF1.0826462964382564
tp171
sbsg41
F0.17080860069179896
sbag1
(g2
g3
Ntp172
Rp173
(dp174
g7
g1
(g8
g3
Ntp175
Rp176
(dp177
g12
(lp178
(lp179
F1.1140350349830639
aF0.06996031209436163
aa(lp180
F1.1140350349830639
aF-0.06996031209436163
aa(lp181
F-1.1140350349830639
aF-0.06996031209436163
aa(lp182
F-1.1140350349830639
aF0.06996031209436163
aasg18
((lp183
F0.0
aF0.0
aF1.1162295930667923
tp184
sbsg21
F2.2280700699661278
sg22
g1
(g23
g3
Ntp185
Rp186
(dp187
g27
F-4.333411464833073
sg28
F2.7498397493942948
sg29
F2.0360879661585596
sbsg30
g1
(g8
g3
Ntp188
Rp189
(dp190
g12
(lp191
(lp192
F2.187467776101195
aF-3.369198693660402
aa(lp193
F2.3125135436528432
aF-3.3064186244442793
aa(lp194
F3.3122117226873944
aF-5.297624236005745
aa(lp195
F3.1871659551357463
aF-5.360404305221867
aasg18
((lp196
F2.7498397493942948
aF-4.333411464833073
aF1.1162295930667925
tp197
sbsg41
F0.13992062418872325
sbag1
(g2
g3
Ntp198
Rp199
(dp200
g7
g1
(g8
g3
Ntp201
Rp202
(dp203
g12
(lp204
(lp205
F0.6281437378501736
aF0.6453281379897572
aa(lp206
F0.6281437378501736
aF-0.6453281379897572
aa(lp207
F-0.6281437378501736
aF-0.6453281379897572
aa(lp208
F-0.6281437378501736
aF0.6453281379897572
aasg18
((lp209
F0.0
aF0.0
aF0.9005625803250514
tp210
sbsg21
F1.2562874757003473
sg22
g1
(g23
g3
Ntp211
Rp212
(dp213
g27
F0.3944911314614461
sg28
F1.97905524891884
sg29
F-0.10244911385163702
sbsg30
g1
(g8
g3
Ntp214
Rp215
(dp216
g12
(lp217
(lp218
F2.6699031312437924
aF0.9721953503908592
aa(lp219
F2.537907722564665
aF-0.31169359917329154
aa(lp220
F1.2882073665938876
aF-0.18321308746796705
aa(lp221
F1.4202027752730149
aF1.1006758620961836
aasg18
((lp222
F1.97905524891884
aF0.3944911314614461
aF0.9005625803250513
tp223
sbsg41
F1.2906562759795144
sbag1
(g2
g3
Ntp224
Rp225
(dp226
g7
g1
(g8
g3
Ntp227
Rp228
(dp229
g12
(lp230
(lp231
F0.5548572081016482
aF0.3598429159869328
aa(lp232
F0.5548572081016482
aF-0.3598429159869328
aa(lp233
F-0.5548572081016482
aF-0.3598429159869328
aa(lp234
F-0.5548572081016482
aF0.3598429159869328
aasg18
((lp235
F0.0
aF0.0
aF0.6613270337498192
tp236
sbsg21
F1.1097144162032964
sg22
g1
(g23
g3
Ntp237
Rp238
(dp239
g27
F2.549062909358695
sg28
F-3.113633966815179
sg29
F0.6029275286271485
sbsg30
g1
(g8
g3
Ntp240
Rp241
(dp242
g12
(lp243
(lp244
F-2.8606608680640098
aF3.1600932333824425
aa(lp245
F-2.452558523344719
aF2.5673030740692733
aa(lp246
F-3.3666070655663485
aF1.9380325853349478
aa(lp247
F-3.7747094102856393
aF2.530822744648117
aasg18
((lp248
F-3.113633966815179
aF2.549062909358695
aF0.6613270337498193
tp249
sbsg41
F0.7196858319738656
sbag1
(g2
g3
Ntp250
Rp251
(dp252
g7
g1
(g8
g3
Ntp253
Rp254
(dp255
g12
(lp256
(lp257
F0.848201831130056
aF0.17993892904969255
aa(lp258
F0.848201831130056
aF-0.17993892904969255
aa(lp259
F-0.848201831130056
aF-0.17993892904969255
aa(lp260
F-0.848201831130056
aF0.17993892904969255
aasg18
((lp261
F0.0
aF0.0
aF0.8670780613762121
tp262
sbsg21
F1.696403662260112
sg22
g1
(g23
g3
Ntp263
Rp264
(dp265
g27
F5.089260704709904
sg28
F0.7466254720797817
sg29
F2.202711642252069
sbsg30
g1
(g8
g3
Ntp266
Rp267
(dp268
g12
(lp269
(lp270
F0.10040773124676572
aF5.667384390397148
aa(lp271
F0.39079232162047495
aF5.879961111661952
aa(lp272
F1.3928432129127977
aF4.5111370190226605
aa(lp273
F1.1024586225390884
aF4.298560297757856
aasg18
((lp274
F0.7466254720797817
aF5.089260704709904
aF0.8670780613762121
tp275
sbsg41
F0.3598778580993851
sbag1
(g2
g3
Ntp276
Rp277
(dp278
g7
g1
(g8
g3
Ntp279
Rp280
(dp281
g12
(lp282
(lp283
F0.7065074762335714
aF0.17482023114224093
aa(lp284
F0.7065074762335714
aF-0.17482023114224093
aa(lp285
F-0.7065074762335714
aF-0.17482023114224093
aa(lp286
F-0.7065074762335714
aF0.17482023114224093
aasg18
((lp287
F0.0
aF0.0
aF0.7278151737842218
tp288
sbsg21
F1.4130149524671427
sg22
g1
(g23
g3
Ntp289
Rp290
(dp291
g27
F-2.4251052006220957
sg28
F5.315810464403115
sg29
F-3.084220967248908
sbsg30
g1
(g8
g3
Ntp292
Rp293
(dp294
g12
(lp295
(lp296
F4.620489637836364
aF-2.640149092265376
aa(lp297
F4.600441177412986
aF-2.2910838947719014
aa(lp298
F6.011131290969866
aF-2.2100613089788155
aa(lp299
F6.031179751393244
aF-2.55912650647229
aasg18
((lp300
F5.315810464403115
aF-2.4251052006220957
aF0.727815173784222
tp301
sbsg41
F0.34964046228448187
sbag1
(g2
g3
Ntp302
Rp303
(dp304
g7
g1
(g8
g3
Ntp305
Rp306
(dp307
g12
(lp308
(lp309
F1.0950683370944327
aF0.08779626100674603
aa(lp310
F1.0950683370944327
aF-0.08779626100674603
aa(lp311
F-1.0950683370944327
aF-0.08779626100674603
aa(lp312
F-1.0950683370944327
aF0.08779626100674603
aasg18
((lp313
F0.0
aF0.0
aF1.098582198268992
tp314
sbsg21
F2.1901366741888655
sg22
g1
(g23
g3
Ntp315
Rp316
(dp317
g27
F-0.9778341798001806
sg28
F-1.1764186265847831
sg29
F0.895415846053984
sbsg30
g1
(g8
g3
Ntp318
Rp319
(dp320
g12
(lp321
(lp322
F-0.5603103989354904
aF-0.06827742061668785
aa(lp323
F-0.42326585547718343
aF-0.17805686721468694
aa(lp324
F-1.792526854234076
aF-1.8873909389836734
aa(lp325
F-1.9295713976923827
aF-1.7776114923856743
aasg18
((lp326
F-1.1764186265847831
aF-0.9778341798001806
aF1.098582198268992
tp327
sbsg41
F0.17559252201349207
sbag1
(g2
g3
Ntp328
Rp329
(dp330
g7
g1
(g8
g3
Ntp331
Rp332
(dp333
g12
(lp334
(lp335
F0.8729110890374937
aF0.05720186734369288
aa(lp336
F0.8729110890374937
aF-0.05720186734369288
aa(lp337
F-0.8729110890374937
aF-0.05720186734369288
aa(lp338
F-0.8729110890374937
aF0.05720186734369288
aasg18
((lp339
F0.0
aF0.0
aF0.8747833005906255
tp340
sbsg21
F1.7458221780749874
sg22
g1
(g23
g3
Ntp341
Rp342
(dp343
g27
F-0.15200840867595752
sg28
F0.5441556765547113
sg29
F-1.2216106485168257
sbsg30
g1
(g8
g3
Ntp344
Rp345
(dp346
g12
(lp347
(lp348
F0.8965569690987439
aF-0.952670105028121
aa(lp349
F0.7890573132654599
aF-0.9918113684996446
aa(lp350
F0.19175438401067868
aF0.6486532876762059
aa(lp351
F0.2992540398439627
aF0.6877945511477295
aasg18
((lp352
F0.5441556765547113
aF-0.15200840867595755
aF0.8747833005906256
tp353
sbsg41
F0.11440373468738577
sbag1
(g2
g3
Ntp354
Rp355
(dp356
g7
g1
(g8
g3
Ntp357
Rp358
(dp359
g12
(lp360
(lp361
F0.31199064981111996
aF0.33652113318585036
aa(lp362
F0.31199064981111996
aF-0.33652113318585036
aa(lp363
F-0.31199064981111996
aF-0.33652113318585036
aa(lp364
F-0.31199064981111996
aF0.33652113318585036
aasg18
((lp365
F0.0
aF0.0
aF0.4588950192040155
tp366
sbsg21
F0.6239812996222399
sg22
g1
(g23
g3
Ntp367
Rp368
(dp369
g27
F-2.2268405539132017
sg28
F-1.7354076927489757
sg29
F2.8165755768179404
sbsg30
g1
(g8
g3
Ntp370
Rp371
(dp372
g12
(lp373
(lp374
F-2.138523757719298
aF-2.4461168107516853
aa(lp375
F-1.9236045571263891
aF-1.808311488149827
aa(lp376
F-1.3322916277786532
aF-2.007564297074718
aa(lp377
F-1.5472108283715622
aF-2.6453696196765764
aasg18
((lp378
F-1.7354076927489757
aF-2.2268405539132017
aF0.45889501920401565
tp379
sbsg41
F0.6730422663717007
sbag1
(g2
g3
Ntp380
Rp381
(dp382
g7
g1
(g8
g3
Ntp383
Rp384
(dp385
g12
(lp386
(lp387
F0.2146868390036275
aF0.05220074340215693
aa(lp388
F0.2146868390036275
aF-0.05220074340215693
aa(lp389
F-0.2146868390036275
aF-0.05220074340215693
aa(lp390
F-0.2146868390036275
aF0.05220074340215693
aasg18
((lp391
F0.0
aF0.0
aF0.22094197530824083
tp392
sbsg21
F0.429373678007255
sg22
g1
(g23
g3
Ntp393
Rp394
(dp395
g27
F-2.2953479798668845
sg28
F-1.7543011449554002
sg29
F2.229573972515565
sbsg30
g1
(g8
g3
Ntp396
Rp397
(dp398
g12
(lp399
(lp400
F-1.926999125719379
aF-2.1575409992993104
aa(lp401
F-1.8444445805452143
aF-2.093631551499802
aa(lp402
F-1.5816031641914214
aF-2.4331549604344587
aa(lp403
F-1.6641577093655862
aF-2.497064408233967
aasg18
((lp404
F-1.7543011449554002
aF-2.2953479798668845
aF0.22094197530824092
tp405
sbsg41
F0.10440148680431385
sbag1
(g2
g3
Ntp406
Rp407
(dp408
g7
g1
(g8
g3
Ntp409
Rp410
(dp411
g12
(lp412
(lp413
F0.9979342669294237
aF0.16745407640313775
aa(lp414
F0.9979342669294237
aF-0.16745407640313775
aa(lp415
F-0.9979342669294237
aF-0.16745407640313775
aa(lp416
F-0.9979342669294237
aF0.16745407640313775
aasg18
((lp417
F0.0
aF0.0
aF1.0118861936087447
tp418
sbsg21
F1.9958685338588473
sg22
g1
(g23
g3
Ntp419
Rp420
(dp421
g27
F-0.47382889088366414
sg28
F2.3800111765831273
sg29
F2.3019025173758676
sbsg30
g1
(g8
g3
Ntp422
Rp423
(dp424
g12
(lp425
(lp426
F1.5890380348235096
aF0.15726156050259626
aa(lp427
F1.8383558081004892
aF0.38087756785520105
aa(lp428
F3.170984318342745
aF-1.1049193422699246
aa(lp429
F2.9216665450657655
aF-1.3285353496225294
aasg18
((lp430
F2.3800111765831273
aF-0.4738288908836642
aF1.0118861936087449
tp431
sbsg41
F0.3349081528062755
sbag1
(g2
g3
Ntp432
Rp433
(dp434
g7
g1
(g8
g3
Ntp435
Rp436
(dp437
g12
(lp438
(lp439
F0.44653732387069156
aF0.8159555497077502
aa(lp440
F0.44653732387069156
aF-0.8159555497077502
aa(lp441
F-0.44653732387069156
aF-0.8159555497077502
aa(lp442
F-0.44653732387069156
aF0.8159555497077502
aasg18
((lp443
F0.0
aF0.0
aF0.9301500097879243
tp444
sbsg21
F0.8930746477413831
sg22
g1
(g23
g3
Ntp445
Rp446
(dp447
g27
F-3.639026120560386
sg28
F0.23524651074356576
sg29
F1.0459095621322296
sbsg30
g1
(g8
g3
Ntp448
Rp449
(dp450
g12
(lp451
(lp452
F-0.24709910847758396
aF-2.843713764107501
aa(lp453
F1.1651252465463775
aF-3.6614889211480306
aa(lp454
F0.7175921299647154
aF-4.434338477013271
aa(lp455
F-0.694632225059246
aF-3.6165633199727414
aasg18
((lp456
F0.23524651074356573
aF-3.639026120560386
aF0.9301500097879243
tp457
sbsg41
F1.6319110994155004
sbag1
(g2
g3
Ntp458
Rp459
(dp460
g7
g1
(g8
g3
Ntp461
Rp462
(dp463
g12
(lp464
(lp465
F0.1104684809619462
aF1.0044214976604051
aa(lp466
F0.1104684809619462
aF-1.0044214976604051
aa(lp467
F-0.1104684809619462
aF-1.0044214976604051
aa(lp468
F-0.1104684809619462
aF1.0044214976604051
aasg18
((lp469
F0.0
aF0.0
aF1.0104780206656705
tp470
sbsg21
F0.2209369619238924
sg22
g1
(g23
g3
Ntp471
Rp472
(dp473
g27
F3.877571083504332
sg28
F3.9033366435264156
sg29
F0.8726180761423779
sbsg30
g1
(g8
g3
Ntp474
Rp475
(dp476
g12
(lp477
(lp478
F3.2049469014668452
aF4.607857053816222
aa(lp479
F4.743749805526618
aF3.3165260341676204
aa(lp480
F4.601726385585986
aF3.1472851131924426
aa(lp481
F3.062923481526213
aF4.438616132841044
aasg18
((lp482
F3.9033366435264156
aF3.877571083504332
aF1.0104780206656707
tp483
sbsg41
F2.0088429953208102
sbag1
(g2
g3
Ntp484
Rp485
(dp486
g7
g1
(g8
g3
Ntp487
Rp488
(dp489
g12
(lp490
(lp491
F1.1608358439019328
aF0.1376070530225714
aa(lp492
F1.1608358439019328
aF-0.1376070530225714
aa(lp493
F-1.1608358439019328
aF-0.1376070530225714
aa(lp494
F-1.1608358439019328
aF0.1376070530225714
aasg18
((lp495
F0.0
aF0.0
aF1.1689634543171439
tp496
sbsg21
F2.3216716878038657
sg22
g1
(g23
g3
Ntp497
Rp498
(dp499
g27
F-3.563053540473408
sg28
F-3.67487672682688
sg29
F0.9287345641783711
sbsg30
g1
(g8
g3
Ntp500
Rp501
(dp502
g12
(lp503
(lp504
F-3.0899169840634926
aF-2.550977625892263
aa(lp505
F-2.8695082503529523
aF-2.7157890158819824
aa(lp506
F-4.259836469590267
aF-4.575129455054553
aa(lp507
F-4.480245203300807
aF-4.410318065064834
aasg18
((lp508
F-3.67487672682688
aF-3.563053540473408
aF1.168963454317144
tp509
sbsg41
F0.2752141060451428
sbag1
(g2
g3
Ntp510
Rp511
(dp512
g7
g1
(g8
g3
Ntp513
Rp514
(dp515
g12
(lp516
(lp517
F0.832624376607667
aF0.16351866825570466
aa(lp518
F0.832624376607667
aF-0.16351866825570466
aa(lp519
F-0.832624376607667
aF-0.16351866825570466
aa(lp520
F-0.832624376607667
aF0.16351866825570466
aasg18
((lp521
F0.0
aF0.0
aF0.8485291435121278
tp522
sbsg21
F1.665248753215334
sg22
g1
(g23
g3
Ntp523
Rp524
(dp525
g27
F-5.739857201414868
sg28
F-0.5358763040403521
sg29
F-2.3415925935054083
sbsg30
g1
(g8
g3
Ntp526
Rp527
(dp528
g12
(lp529
(lp530
F-0.9986701382071268
aF-6.451069950489742
aa(lp531
F-1.2332723771953162
aF-6.223220858031148
aa(lp532
F-0.07308246987357747
aF-5.028644452339993
aa(lp533
F0.16151976911461197
aF-5.256493544798587
aasg18
((lp534
F-0.535876304040352
aF-5.739857201414868
aF0.8485291435121279
tp535
sbsg41
F0.3270373365114093
sbag1
(g2
g3
Ntp536
Rp537
(dp538
g7
g1
(g8
g3
Ntp539
Rp540
(dp541
g12
(lp542
(lp543
F0.2461124999835781
aF0.6238906340788738
aa(lp544
F0.2461124999835781
aF-0.6238906340788738
aa(lp545
F-0.2461124999835781
aF-0.6238906340788738
aa(lp546
F-0.2461124999835781
aF0.6238906340788738
aasg18
((lp547
F0.0
aF0.0
aF0.6706794211391206
tp548
sbsg21
F0.4922249999671562
sg22
g1
(g23
g3
Ntp549
Rp550
(dp551
g27
F-1.7080357123976866
sg28
F5.418830137553649
sg29
F-1.1620508085739583
sbsg30
g1
(g8
g3
Ntp552
Rp553
(dp554
g12
(lp555
(lp556
F6.0891442601475845
aF-1.685902863719106
aa(lp557
F4.944155026720788
aF-2.1818441389746273
aa(lp558
F4.748516014959714
aF-1.7301685610762672
aa(lp559
F5.893505248386511
aF-1.234227285820746
aasg18
((lp560
F5.418830137553649
aF-1.7080357123976864
aF0.6706794211391209
tp561
sbsg41
F1.2477812681577476
sbag1
(g2
g3
Ntp562
Rp563
(dp564
g7
g1
(g8
g3
Ntp565
Rp566
(dp567
g12
(lp568
(lp569
F0.8054380301433194
aF0.3756311226137356
aa(lp570
F0.8054380301433194
aF-0.3756311226137356
aa(lp571
F-0.8054380301433194
aF-0.3756311226137356
aa(lp572
F-0.8054380301433194
aF0.3756311226137356
aasg18
((lp573
F0.0
aF0.0
aF0.8887233319077462
tp574
sbsg21
F1.6108760602866388
sg22
g1
(g23
g3
Ntp575
Rp576
(dp577
g27
F-3.6097398539416052
sg28
F-4.6997208629421845
sg29
F3.1274651331612366
sbsg30
g1
(g8
g3
Ntp578
Rp579
(dp580
g12
(lp581
(lp582
F-5.510385076843663
aF-3.973955027948267
aa(lp583
F-5.499771957175055
aF-3.2227677525001797
aa(lp584
F-3.8890566490407052
aF-3.2455246799349435
aa(lp585
F-3.8996697687093143
aF-3.996711955383031
aasg18
((lp586
F-4.6997208629421845
aF-3.6097398539416052
aF0.8887233319077463
tp587
sbsg41
F0.7512622452274712
sbag1
(g2
g3
Ntp588
Rp589
(dp590
g7
g1
(g8
g3
Ntp591
Rp592
(dp593
g12
(lp594
(lp595
F0.7211158035622525
aF0.5068367348224657
aa(lp596
F0.7211158035622525
aF-0.5068367348224657
aa(lp597
F-0.7211158035622525
aF-0.5068367348224657
aa(lp598
F-0.7211158035622525
aF0.5068367348224657
aasg18
((lp599
F0.0
aF0.0
aF0.8814144756655246
tp600
sbsg21
F1.442231607124505
sg22
g1
(g23
g3
Ntp601
Rp602
(dp603
g27
F0.2703812170269703
sg28
F4.953900827769484
sg29
F-1.4678891248689356
sbsg30
g1
(g8
g3
Ntp604
Rp605
(dp606
g12
(lp607
(lp608
F5.5321333600180065
aF-0.39485454310788043
aa(lp609
F4.52382250179874
aF-0.49898482813159667
aa(lp610
F4.375668295520962
aF0.935616977161821
aa(lp611
F5.383979153740228
aF1.0397472621855373
aasg18
((lp612
F4.953900827769484
aF0.27038121702697027
aF0.8814144756655244
tp613
sbsg41
F1.0136734696449314
sbag1
(g2
g3
Ntp614
Rp615
(dp616
g7
g1
(g8
g3
Ntp617
Rp618
(dp619
g12
(lp620
(lp621
F0.2578684543320579
aF0.05854088199005192
aa(lp622
F0.2578684543320579
aF-0.05854088199005192
aa(lp623
F-0.2578684543320579
aF-0.05854088199005192
aa(lp624
F-0.2578684543320579
aF0.05854088199005192
aasg18
((lp625
F0.0
aF0.0
aF0.2644299048968891
tp626
sbsg21
F0.5157369086641158
sg22
g1
(g23
g3
Ntp627
Rp628
(dp629
g27
F-2.0179927661225547
sg28
F3.499243401752832
sg29
F-0.11455505025994885
sbsg30
g1
(g8
g3
Ntp630
Rp631
(dp632
g12
(lp633
(lp634
F3.7621132158109987
aF-1.9893111437695088
aa(lp635
F3.748730223849624
aF-2.105625523718226
aa(lp636
F3.2363735876946658
aF-2.0466743884756005
aa(lp637
F3.2497565796560406
aF-1.9303600085268835
aasg18
((lp638
F3.4992434017528318
aF-2.0179927661225547
aF0.26442990489688956
tp639
sbsg41
F0.11708176398010384
sbag1
(g2
g3
Ntp640
Rp641
(dp642
g7
g1
(g8
g3
Ntp643
Rp644
(dp645
g12
(lp646
(lp647
F1.173214381706309
aF0.08861060145619067
aa(lp648
F1.173214381706309
aF-0.08861060145619067
aa(lp649
F-1.173214381706309
aF-0.08861060145619067
aa(lp650
F-1.173214381706309
aF0.08861060145619067
aasg18
((lp651
F0.0
aF0.0
aF1.1765559162797765
tp652
sbsg21
F2.346428763412618
sg22
g1
(g23
g3
Ntp653
Rp654
(dp655
g27
F1.7378426321957061
sg28
F-1.3978818428508575
sg29
F-1.5432449581932866
sbsg30
g1
(g8
g3
Ntp656
Rp657
(dp658
g12
(lp659
(lp660
F-1.2769852977711451
aF0.5675145373775334
aa(lp661
F-1.4541392425878805
aF0.5626324683918982
aa(lp662
F-1.5187783879305699
aF2.9081707270138786
aa(lp663
F-1.3416244431138344
aF2.913052795999514
aasg18
((lp664
F-1.3978818428508575
aF1.7378426321957061
aF1.1765559162797765
tp665
sbsg41
F0.17722120291238133
sbag1
(g2
g3
Ntp666
Rp667
(dp668
g7
g1
(g8
g3
Ntp669
Rp670
(dp671
g12
(lp672
(lp673
F1.1513261505887364
aF0.06620339317705089
aa(lp674
F1.1513261505887364
aF-0.06620339317705089
aa(lp675
F-1.1513261505887364
aF-0.06620339317705089
aa(lp676
F-1.1513261505887364
aF0.06620339317705089
aasg18
((lp677
F0.0
aF0.0
aF1.1532279888632746
tp678
sbsg21
F2.302652301177473
sg22
g1
(g23
g3
Ntp679
Rp680
(dp681
g27
F-5.520966345120534
sg28
F-2.0711530040056836
sg29
F-2.464298030870864
sbsg30
g1
(g8
g3
Ntp682
Rp683
(dp684
g12
(lp685
(lp686
F-2.9268592648583147
aF-6.2940779731764325
aa(lp687
F-3.0098368895447227
aF-6.190897205229968
aa(lp688
F-1.2154467431530525
aF-4.747854717064636
aa(lp689
F-1.1324691184666444
aF-4.851035485011101
aasg18
((lp690
F-2.0711530040056836
aF-5.520966345120534
aF1.1532279888632746
tp691
sbsg41
F0.13240678635410177
sbag1
(g2
g3
Ntp692
Rp693
(dp694
g7
g1
(g8
g3
Ntp695
Rp696
(dp697
g12
(lp698
(lp699
F0.9780252975087687
aF0.13370034980848575
aa(lp700
F0.9780252975087687
aF-0.13370034980848575
aa(lp701
F-0.9780252975087687
aF-0.13370034980848575
aa(lp702
F-0.9780252975087687
aF0.13370034980848575
aasg18
((lp703
F0.0
aF0.0
aF0.9871217078486456
tp704
sbsg21
F1.9560505950175373
sg22
g1
(g23
g3
Ntp705
Rp706
(dp707
g27
F-0.4568381917122152
sg28
F-0.20528638555585127
sg29
F3.111955885982943
sbsg30
g1
(g8
g3
Ntp708
Rp709
(dp710
g12
(lp711
(lp712
F-1.186844062273718
aF-0.5614985633064852
aa(lp713
F-1.1789203299526607
aF-0.2942152891912685
aa(lp714
F0.7762712911620155
aF-0.3521778201179452
aa(lp715
F0.7683475588409583
aF-0.6194610942331619
aasg18
((lp716
F-0.20528638555585127
aF-0.4568381917122152
aF0.9871217078486457
tp717
sbsg41
F0.2674006996169715
sbag1
(g2
g3
Ntp718
Rp719
(dp720
g7
g1
(g8
g3
Ntp721
Rp722
(dp723
g12
(lp724
(lp725
F0.898183127080805
aF0.39881553249853435
aa(lp726
F0.898183127080805
aF-0.39881553249853435
aa(lp727
F-0.898183127080805
aF-0.39881553249853435
aa(lp728
F-0.898183127080805
aF0.39881553249853435
aasg18
((lp729
F0.0
aF0.0
aF0.9827445032839122
tp730
sbsg21
F1.79636625416161
sg22
g1
(g23
g3
Ntp731
Rp732
(dp733
g27
F0.2177765779885195
sg28
F-0.9640225021512732
sg29
F2.3094289924628235
sbsg30
g1
(g8
g3
Ntp734
Rp735
(dp736
g12
(lp737
(lp738
F-1.8636291906007685
aF0.6133705173147888
aa(lp739
F-1.2738688809800363
aF1.1503976051273277
aa(lp740
F-0.06441581370177796
aF-0.1778173613377498
aa(lp741
F-0.65417612332251
aF-0.7148444491502888
aasg18
((lp742
F-0.9640225021512732
aF0.21777657798851946
aF0.9827445032839122
tp743
sbsg41
F0.7976310649970687
sbag1
(g2
g3
Ntp744
Rp745
(dp746
g7
g1
(g8
g3
Ntp747
Rp748
(dp749
g12
(lp750
(lp751
F0.09209620081253994
aF0.973909563510851
aa(lp752
F0.09209620081253994
aF-0.973909563510851
aa(lp753
F-0.09209620081253994
aF-0.973909563510851
aa(lp754
F-0.09209620081253994
aF0.973909563510851
aasg18
((lp755
F0.0
aF0.0
aF0.9782543371240426
tp756
sbsg21
F0.18419240162507988
sg22
g1
(g23
g3
Ntp757
Rp758
(dp759
g27
F1.227000790482222
sg28
F-5.107027106482978
sg29
F-1.597760072866359
sbsg30
g1
(g8
g3
Ntp760
Rp761
(dp762
g12
(lp763
(lp764
F-4.135954516558821
aF1.1086809983932002
aa(lp765
F-6.083065611762304
aF1.1611951348430711
aa(lp766
F-6.078099696407135
aF1.3453205825712438
aa(lp767
F-4.1309886012036525
aF1.2928064461213729
aasg18
((lp768
F-5.107027106482979
aF1.227000790482222
aF0.9782543371240432
tp769
sbsg41
F1.947819127021702
sbag1
(g2
g3
Ntp770
Rp771
(dp772
g7
g1
(g8
g3
Ntp773
Rp774
(dp775
g12
(lp776
(lp777
F0.23139372278729997
aF0.5146617032690057
aa(lp778
F0.23139372278729997
aF-0.5146617032690057
aa(lp779
F-0.23139372278729997
aF-0.5146617032690057
aa(lp780
F-0.23139372278729997
aF0.5146617032690057
aasg18
((lp781
F0.0
aF0.0
aF0.5642869161668733
tp782
sbsg21
F0.46278744557459994
sg22
g1
(g23
g3
Ntp783
Rp784
(dp785
g27
F-0.4837300210771541
sg28
F-4.677917500261918
sg29
F0.9257297052128246
sbsg30
g1
(g8
g3
Ntp786
Rp787
(dp788
g12
(lp789
(lp790
F-4.950037069560443
aF0.010608591375793064
aa(lp791
F-4.1275462043877305
aF-0.6082738303768848
aa(lp792
F-4.405797930963393
aF-0.9780686335301013
aa(lp793
F-5.2282887961361055
aF-0.3591862117774235
aasg18
((lp794
F-4.677917500261918
aF-0.4837300210771541
aF0.5642869161668735
tp795
sbsg41
F1.0293234065380115
sbag1
(g2
g3
Ntp796
Rp797
(dp798
g7
g1
(g8
g3
Ntp799
Rp800
(dp801
g12
(lp802
(lp803
F0.5945279149706558
aF0.5056601124734685
aa(lp804
F0.5945279149706558
aF-0.5056601124734685
aa(lp805
F-0.5945279149706558
aF-0.5056601124734685
aa(lp806
F-0.5945279149706558
aF0.5056601124734685
aasg18
((lp807
F0.0
aF0.0
aF0.7804842029317673
tp808
sbsg21
F1.1890558299413116
sg22
g1
(g23
g3
Ntp809
Rp810
(dp811
g27
F-3.8843901662695215
sg28
F4.060985647575665
sg29
F1.9963232672393092
sbsg30
g1
(g8
g3
Ntp812
Rp813
(dp814
g12
(lp815
(lp816
F3.3549980357972973
aF-3.5516183479893173
aa(lp817
F4.276130076215539
aF-3.1341445625827964
aa(lp818
F4.766973259354033
aF-4.217161984549726
aa(lp819
F3.8458412189357905
aF-4.634635769956247
aasg18
((lp820
F4.060985647575665
aF-3.8843901662695215
aF0.7804842029317679
tp821
sbsg41
F1.011320224946937
sbag1
(g2
g3
Ntp822
Rp823
(dp824
g7
g1
(g8
g3
Ntp825
Rp826
(dp827
g12
(lp828
(lp829
F0.7283049028580817
aF0.16618767139376528
aa(lp830
F0.7283049028580817
aF-0.16618767139376528
aa(lp831
F-0.7283049028580817
aF-0.16618767139376528
aa(lp832
F-0.7283049028580817
aF0.16618767139376528
aasg18
((lp833
F0.0
aF0.0
aF0.7470250154113997
tp834
sbsg21
F1.4566098057161634
sg22
g1
(g23
g3
Ntp835
Rp836
(dp837
g27
F-2.9167041320000204
sg28
F-3.422489207863682
sg29
F2.908934661586221
sbsg30
g1
(g8
g3
Ntp838
Rp839
(dp840
g12
(lp841
(lp842
F-4.169488399945887
aF-2.9104927972856123
aa(lp843
F-4.092854374541227
aF-2.5870726454035653
aa(lp844
F-2.6754900157814765
aF-2.9229154667144286
aa(lp845
F-2.752124041186137
aF-3.2463356185964756
aasg18
((lp846
F-3.422489207863682
aF-2.9167041320000204
aF0.7470250154113999
tp847
sbsg41
F0.33237534278753056
sbag1
(g2
g3
Ntp848
Rp849
(dp850
g7
g1
(g8
g3
Ntp851
Rp852
(dp853
g12
(lp854
(lp855
F0.6218310392000892
aF0.4443975035168827
aa(lp856
F0.6218310392000892
aF-0.4443975035168827
aa(lp857
F-0.6218310392000892
aF-0.4443975035168827
aa(lp858
F-0.6218310392000892
aF0.4443975035168827
aasg18
((lp859
F0.0
aF0.0
aF0.7643055556809073
tp860
sbsg21
F1.2436620784001784
sg22
g1
(g23
g3
Ntp861
Rp862
(dp863
g27
F-0.1663444383289512
sg28
F0.7412199619322525
sg29
F-1.3496978872437184
sbsg30
g1
(g8
g3
Ntp864
Rp865
(dp866
g12
(lp867
(lp868
F1.3111680150653933
aF-0.6755813175653663
aa(lp869
F0.4440088128256975
aF-0.8704953563085146
aa(lp870
F0.1712719087991117
aF0.34289244090746396
aa(lp871
F1.0384311110388076
aF0.5378064796506122
aasg18
((lp872
F0.7412199619322526
aF-0.1663444383289512
aF0.7643055556809075
tp873
sbsg41
F0.8887950070337653
sbag1
(g2
g3
Ntp874
Rp875
(dp876
g7
g1
(g8
g3
Ntp877
Rp878
(dp879
g12
(lp880
(lp881
F0.19512030579965656
aF0.3184248140263582
aa(lp882
F0.19512030579965656
aF-0.3184248140263582
aa(lp883
F-0.19512030579965656
aF-0.3184248140263582
aa(lp884
F-0.19512030579965656
aF0.3184248140263582
aasg18
((lp885
F0.0
aF0.0
aF0.3734518656039521
tp886
sbsg21
F0.3902406115993131
sg22
g1
(g23
g3
Ntp887
Rp888
(dp889
g27
F0.05219226653305868
sg28
F-0.627639214084511
sg29
F-2.579604555179488
sbsg30
g1
(g8
g3
Ntp890
Rp891
(dp892
g12
(lp893
(lp894
F-0.6230706121086182
aF-0.3212316531601744
aa(lp895
F-0.9624284018467307
aF0.2176688379278801
aa(lp896
F-0.6322078160604037
aF0.42561618622629177
aa(lp897
F-0.2928500263222912
aF-0.11328430486176273
aasg18
((lp898
F-0.627639214084511
aF0.052192266533058695
aF0.37345186560395216
tp899
sbsg41
F0.6368496280527164
sbag1
(g2
g3
Ntp900
Rp901
(dp902
g7
g1
(g8
g3
Ntp903
Rp904
(dp905
g12
(lp906
(lp907
F0.37744502648949746
aF0.4843408293184816
aa(lp908
F0.37744502648949746
aF-0.4843408293184816
aa(lp909
F-0.37744502648949746
aF-0.4843408293184816
aa(lp910
F-0.37744502648949746
aF0.4843408293184816
aasg18
((lp911
F0.0
aF0.0
aF0.6140446131728312
tp912
sbsg21
F0.7548900529789949
sg22
g1
(g23
g3
Ntp913
Rp914
(dp915
g27
F-0.5066120160227529
sg28
F-1.3418089764002725
sg29
F-1.6545385882047712
sbsg30
g1
(g8
g3
Ntp916
Rp917
(dp918
g12
(lp919
(lp920
F-0.8907366090326307
aF-0.9232467557696002
aa(lp921
F-1.8560236830832335
aF-0.842221941974785
aa(lp922
F-1.7928813437679143
aF-0.08997727627590552
aa(lp923
F-0.8275942697173116
aF-0.1710020900707208
aasg18
((lp924
F-1.3418089764002725
aF-0.5066120160227529
aF0.6140446131728313
tp925
sbsg41
F0.9686816586369632
sbag1
(g2
g3
Ntp926
Rp927
(dp928
g7
g1
(g8
g3
Ntp929
Rp930
(dp931
g12
(lp932
(lp933
F0.2716331133614359
aF0.7134444096212532
aa(lp934
F0.2716331133614359
aF-0.7134444096212532
aa(lp935
F-0.2716331133614359
aF-0.7134444096212532
aa(lp936
F-0.2716331133614359
aF0.7134444096212532
aasg18
((lp937
F0.0
aF0.0
aF0.7634051833032346
tp938
sbsg21
F0.5432662267228718
sg22
g1
(g23
g3
Ntp939
Rp940
(dp941
g27
F-3.7341774756933854
sg28
F-1.6189010832708073
sg29
F-3.047126871895226
sbsg30
g1
(g8
g3
Ntp942
Rp943
(dp944
g12
(lp945
(lp946
F-1.8220272095098826
aF-4.470062827316417
aa(lp947
F-1.9566189906125193
aF-3.049535898694895
aa(lp948
F-1.415774957031732
aF-2.998292124070354
aa(lp949
F-1.2811831759290953
aF-4.418819052691876
aasg18
((lp950
F-1.6189010832708073
aF-3.734177475693386
aF0.7634051833032349
tp951
sbsg41
F1.4268888192425064
sbag1
(g2
g3
Ntp952
Rp953
(dp954
g7
g1
(g8
g3
Ntp955
Rp956
(dp957
g12
(lp958
(lp959
F0.8451548870707964
aF0.35298198443048934
aa(lp960
F0.8451548870707964
aF-0.35298198443048934
aa(lp961
F-0.8451548870707964
aF-0.35298198443048934
aa(lp962
F-0.8451548870707964
aF0.35298198443048934
aasg18
((lp963
F0.0
aF0.0
aF0.9159055980133197
tp964
sbsg21
F1.690309774141593
sg22
g1
(g23
g3
Ntp965
Rp966
(dp967
g27
F-1.0291389855060735
sg28
F0.8378115163818471
sg29
F0.37527662382770455
sbsg30
g1
(g8
g3
Ntp968
Rp969
(dp970
g12
(lp971
(lp972
F1.494770462583751
aF-0.3909477857254584
aa(lp973
F1.7535273765416861
aF-1.0477810863496813
aa(lp974
F0.18085257017994327
aF-1.6673301852866886
aa(lp975
F-0.07790434377799182
aF-1.0104968846624658
aasg18
((lp976
F0.8378115163818471
aF-1.0291389855060735
aF0.9159055980133198
tp977
sbsg41
F0.7059639688609787
sbag1
(g2
g3
Ntp978
Rp979
(dp980
g7
g1
(g8
g3
Ntp981
Rp982
(dp983
g12
(lp984
(lp985
F0.24246100394830766
aF0.7791245229146906
aa(lp986
F0.24246100394830766
aF-0.7791245229146906
aa(lp987
F-0.24246100394830766
aF-0.7791245229146906
aa(lp988
F-0.24246100394830766
aF0.7791245229146906
aasg18
((lp989
F0.0
aF0.0
aF0.8159793873883491
tp990
sbsg21
F0.4849220078966153
sg22
g1
(g23
g3
Ntp991
Rp992
(dp993
g27
F0.9151823689410933
sg28
F2.5186629533148395
sg29
F-2.522669443845358
sbsg30
g1
(g8
g3
Ntp994
Rp995
(dp996
g12
(lp997
(lp998
F2.773193257195116
aF0.13991681118086385
aa(lp999
F1.8691619100000894
aF1.4091163274575296
aa(lp1000
F2.264132649434563
aF1.6904479267013226
aa(lp1001
F3.1681639966295894
aF0.42124841042465705
aasg18
((lp1002
F2.5186629533148395
aF0.9151823689410933
aF0.8159793873883491
tp1003
sbsg41
F1.5582490458293812
sbag1
(g2
g3
Ntp1004
Rp1005
(dp1006
g7
g1
(g8
g3
Ntp1007
Rp1008
(dp1009
g12
(lp1010
(lp1011
F1.0351784192730127
aF0.09382313757430275
aa(lp1012
F1.0351784192730127
aF-0.09382313757430275
aa(lp1013
F-1.0351784192730127
aF-0.09382313757430275
aa(lp1014
F-1.0351784192730127
aF0.09382313757430275
aasg18
((lp1015
F0.0
aF0.0
aF1.0394215414704757
tp1016
sbsg21
F2.0703568385460254
sg22
g1
(g23
g3
Ntp1017
Rp1018
(dp1019
g27
F-1.4845631972932298
sg28
F0.30464754384072806
sg29
F1.5182986288105056
sbsg30
g1
(g8
g3
Ntp1020
Rp1021
(dp1022
g12
(lp1023
(lp1024
F0.2652731903948458
aF-0.4458876939893448
aa(lp1025
F0.4526609475794796
aF-0.455734167188359
aa(lp1026
F0.3440218972866103
aF-2.5232387005971146
aa(lp1027
F0.15663414010197654
aF-2.513392227398101
aasg18
((lp1028
F0.30464754384072806
aF-1.4845631972932298
aF1.039421541470476
tp1029
sbsg41
F0.1876462751486055
sbag1
(g2
g3
Ntp1030
Rp1031
(dp1032
g7
g1
(g8
g3
Ntp1033
Rp1034
(dp1035
g12
(lp1036
(lp1037
F0.628443797609478
aF0.622425453224936
aa(lp1038
F0.628443797609478
aF-0.622425453224936
aa(lp1039
F-0.628443797609478
aF-0.622425453224936
aa(lp1040
F-0.628443797609478
aF0.622425453224936
aasg18
((lp1041
F0.0
aF0.0
aF0.8845083671600227
tp1042
sbsg21
F1.256887595218956
sg22
g1
(g23
g3
Ntp1043
Rp1044
(dp1045
g27
F-1.7762206993298382
sg28
F-1.1707311240643936
sg29
F1.2261654509808375
sbsg30
g1
(g8
g3
Ntp1046
Rp1047
(dp1048
g12
(lp1049
(lp1050
F-1.544238815865451
aF-0.9744432640390114
aa(lp1051
F-0.3725848625426653
aF-1.3950152471193822
aa(lp1052
F-0.7972234322633363
aF-2.577998134620665
aa(lp1053
F-1.968877385586122
aF-2.157426151540294
aasg18
((lp1054
F-1.1707311240643936
aF-1.7762206993298382
aF0.8845083671600227
tp1055
sbsg41
F1.244850906449872
sbag1
(g2
g3
Ntp1056
Rp1057
(dp1058
g7
g1
(g8
g3
Ntp1059
Rp1060
(dp1061
g12
(lp1062
(lp1063
F0.1830099159785203
aF0.1404518112576445
aa(lp1064
F0.1830099159785203
aF-0.1404518112576445
aa(lp1065
F-0.1830099159785203
aF-0.1404518112576445
aa(lp1066
F-0.1830099159785203
aF0.1404518112576445
aasg18
((lp1067
F0.0
aF0.0
aF0.2306931742206909
tp1068
sbsg21
F0.3660198319570406
sg22
g1
(g23
g3
Ntp1069
Rp1070
(dp1071
g27
F5.10537269074096
sg28
F-0.48151697452426795
sg29
F-0.8761918823661508
sbsg30
g1
(g8
g3
Ntp1072
Rp1073
(dp1074
g12
(lp1075
(lp1076
F-0.256465595379923
aF5.054665517902728
aa(lp1077
F-0.4722858007620111
aF4.874864282948556
aa(lp1078
F-0.7065683536686129
aF5.156079863579191
aa(lp1079
F-0.4907481482865248
aF5.335881098533363
aasg18
((lp1080
F-0.48151697452426795
aF5.10537269074096
aF0.23069317422069102
tp1081
sbsg41
F0.280903622515289
sbag1
(g2
g3
Ntp1082
Rp1083
(dp1084
g7
g1
(g8
g3
Ntp1085
Rp1086
(dp1087
g12
(lp1088
(lp1089
F0.9920909832004912
aF0.26824558206887467
aa(lp1090
F0.9920909832004912
aF-0.26824558206887467
aa(lp1091
F-0.9920909832004912
aF-0.26824558206887467
aa(lp1092
F-0.9920909832004912
aF0.26824558206887467
aasg18
((lp1093
F0.0
aF0.0
aF1.0277160168291564
tp1094
sbsg21
F1.9841819664009823
sg22
g1
(g23
g3
Ntp1095
Rp1096
(dp1097
g27
F-4.140485020442503
sg28
F3.6746318793932553
sg29
F2.4442918241699427
sbsg30
g1
(g8
g3
Ntp1098
Rp1099
(dp1100
g12
(lp1101
(lp1102
F2.741862364322746
aF-3.7090441287756217
aa(lp1103
F3.0863706500852444
aF-3.2977816697073736
aa(lp1104
F4.607401394463764
aF-4.571925912109384
aa(lp1105
F4.262893108701267
aF-4.983188371177632
aasg18
((lp1106
F3.6746318793932553
aF-4.140485020442503
aF1.0277160168291564
tp1107
sbsg41
F0.5364911641377493
sbag1
(g2
g3
Ntp1108
Rp1109
(dp1110
g7
g1
(g8
g3
Ntp1111
Rp1112
(dp1113
g12
(lp1114
(lp1115
F1.0902475372718912
aF0.10992869769275875
aa(lp1116
F1.0902475372718912
aF-0.10992869769275875
aa(lp1117
F-1.0902475372718912
aF-0.10992869769275875
aa(lp1118
F-1.0902475372718912
aF0.10992869769275875
aasg18
((lp1119
F0.0
aF0.0
aF1.0957755295241127
tp1120
sbsg21
F2.1804950745437823
sg22
g1
(g23
g3
Ntp1121
Rp1122
(dp1123
g27
F-4.504603522443972
sg28
F1.993336186379819
sg29
F-2.117035775175255
sbsg30
g1
(g8
g3
Ntp1124
Rp1125
(dp1126
g12
(lp1127
(lp1128
F1.5209093584136266
aF-5.493308181744034
aa(lp1129
F1.3330447138246762
aF-5.379097194447841
aa(lp1130
F2.4657630143460114
aF-3.51589886314391
aa(lp1131
F2.653627658934962
aF-3.630109850440103
aasg18
((lp1132
F1.993336186379819
aF-4.504603522443972
aF1.095775529524113
tp1133
sbsg41
F0.2198573953855175
sbag1
(g2
g3
Ntp1134
Rp1135
(dp1136
g7
g1
(g8
g3
Ntp1137
Rp1138
(dp1139
g12
(lp1140
(lp1141
F0.6989001401953545
aF0.11088704840942713
aa(lp1142
F0.6989001401953545
aF-0.11088704840942713
aa(lp1143
F-0.6989001401953545
aF-0.11088704840942713
aa(lp1144
F-0.6989001401953545
aF0.11088704840942713
aasg18
((lp1145
F0.0
aF0.0
aF0.707642101256024
tp1146
sbsg21
F1.397800280390709
sg22
g1
(g23
g3
Ntp1147
Rp1148
(dp1149
g27
F-4.908248899018264
sg28
F-2.015473323871714
sg29
F1.0815333075350138
sbsg30
g1
(g8
g3
Ntp1150
Rp1151
(dp1152
g12
(lp1153
(lp1154
F-1.784885102503782
aF-4.23922990404397
aa(lp1155
F-1.5891296622203197
aF-4.343458295661832
aa(lp1156
F-2.246061545239646
aF-5.577267893992557
aa(lp1157
F-2.441816985523108
aF-5.473039502374696
aasg18
((lp1158
F-2.015473323871714
aF-4.908248899018264
aF0.707642101256024
tp1159
sbsg41
F0.22177409681885427
sbag1
(g2
g3
Ntp1160
Rp1161
(dp1162
g7
g1
(g8
g3
Ntp1163
Rp1164
(dp1165
g12
(lp1166
(lp1167
F0.7252918927115007
aF0.36626625011021835
aa(lp1168
F0.7252918927115007
aF-0.36626625011021835
aa(lp1169
F-0.7252918927115007
aF-0.36626625011021835
aa(lp1170
F-0.7252918927115007
aF0.36626625011021835
aasg18
((lp1171
F0.0
aF0.0
aF0.8125264891699421
tp1172
sbsg21
F1.4505837854230015
sg22
g1
(g23
g3
Ntp1173
Rp1174
(dp1175
g27
F-2.0060963941979013
sg28
F1.7685911491307937
sg29
F1.7080937887411736
sbsg30
g1
(g8
g3
Ntp1176
Rp1177
(dp1178
g12
(lp1179
(lp1180
F1.306503476026928
aF-1.3377594447717251
aa(lp1181
F2.032142479305706
aF-1.2375002766134664
aa(lp1182
F2.230678822234659
aF-2.6744333436240773
aa(lp1183
F1.5050398189558816
aF-2.7746925117823364
aasg18
((lp1184
F1.7685911491307937
aF-2.0060963941979013
aF0.8125264891699423
tp1185
sbsg41
F0.7325325002204367
sbag1
(g2
g3
Ntp1186
Rp1187
(dp1188
g7
g1
(g8
g3
Ntp1189
Rp1190
(dp1191
g12
(lp1192
(lp1193
F0.5072905687080259
aF0.06637478150165235
aa(lp1194
F0.5072905687080259
aF-0.06637478150165235
aa(lp1195
F-0.5072905687080259
aF-0.06637478150165235
aa(lp1196
F-0.5072905687080259
aF0.06637478150165235
aasg18
((lp1197
F0.0
aF0.0
aF0.5116144375596767
tp1198
sbsg21
F1.0145811374160518
sg22
g1
(g23
g3
Ntp1199
Rp1200
(dp1201
g27
F0.0021712650100271466
sg28
F-0.47841840273585723
sg29
F-1.694115588477254
sbsg30
g1
(g8
g3
Ntp1202
Rp1203
(dp1204
g12
(lp1205
(lp1206
F-0.4749479410671958
aF-0.5094314017298079
aa(lp1207
F-0.6066893788408476
aF-0.4931022850697015
aa(lp1208
F-0.48188886440451867
aF0.5137739317498623
aa(lp1209
F-0.3501474266308668
aF0.49744481508975574
aasg18
((lp1210
F-0.47841840273585723
aF0.002171265010027165
aF0.5116144375596768
tp1211
sbsg41
F0.1327495630033047
sbag1
(g2
g3
Ntp1212
Rp1213
(dp1214
g7
g1
(g8
g3
Ntp1215
Rp1216
(dp1217
g12
(lp1218
(lp1219
F0.5116822578915102
aF0.15573118770716077
aa(lp1220
F0.5116822578915102
aF-0.15573118770716077
aa(lp1221
F-0.5116822578915102
aF-0.15573118770716077
aa(lp1222
F-0.5116822578915102
aF0.15573118770716077
aasg18
((lp1223
F0.0
aF0.0
aF0.5348559954470333
tp1224
sbsg21
F1.0233645157830205
sg22
g1
(g23
g3
Ntp1225
Rp1226
(dp1227
g27
F1.8990698929982182
sg28
F-2.5171647529503347
sg29
F3.0046518035966
sbsg30
g1
(g8
g3
Ntp1228
Rp1229
(dp1230
g12
(lp1231
(lp1232
F-3.04531613725324
aF1.8146480289785112
aa(lp1233
F-3.0027973970210304
aF2.123194570083411
aa(lp1234
F-1.9890133686474294
aF1.9834917570179251
aa(lp1235
F-2.031532108879639
aF1.6749452159130251
aasg18
((lp1236
F-2.5171647529503343
aF1.8990698929982182
aF0.5348559954470339
tp1237
sbsg41
F0.31146237541432154
sbag1
(g2
g3
Ntp1238
Rp1239
(dp1240
g7
g1
(g8
g3
Ntp1241
Rp1242
(dp1243
g12
(lp1244
(lp1245
F0.9610162153633007
aF0.10998987247851048
aa(lp1246
F0.9610162153633007
aF-0.10998987247851048
aa(lp1247
F-0.9610162153633007
aF-0.10998987247851048
aa(lp1248
F-0.9610162153633007
aF0.10998987247851048
aasg18
((lp1249
F0.0
aF0.0
aF0.9672899969704231
tp1250
sbsg21
F1.9220324307266015
sg22
g1
(g23
g3
Ntp1251
Rp1252
(dp1253
g27
F-2.4223855220460866
sg28
F-0.1634197477455381
sg29
F-2.582897974950042
sbsg30
g1
(g8
g3
Ntp1254
Rp1255
(dp1256
g12
(lp1257
(lp1258
F-0.9200078824683142
aF-3.0250664763127295
aa(lp1259
F-1.0366147028905108
aF-2.838535144836268
aa(lp1260
F0.593168386977238
aF-1.8197045677794437
aa(lp1261
F0.7097752073994346
aF-2.006235899255905
aasg18
((lp1262
F-0.16341974774553814
aF-2.4223855220460866
aF0.9672899969704232
tp1263
sbsg41
F0.21997974495702097
sba.(lp0
F1.729179135689005
aF-3.483691122619426
a.